Certificate:
    Data:
        Version: 3 (0x2)
        Serial Number:
            9a:13:0e:ff:5d:9c:8b:55:fb:9f:14:a2:10:da:81:53
        Signature Algorithm: sha256WithRSAEncryption
        Issuer: O=Swaptacular Nodes Registry, OU=Creditors Agents/serialNumber=ca7d3c6f7fc25937c0da7da397502259
        Validity
            Not Before: Jul 25 13:56:14 2023 GMT
            Not After : Jul  1 13:56:14 2123 GMT
        Subject: O=Swaptacular Nodes Registry, OU=Creditors Agents/serialNumber=ca7d3c6f7fc25937c0da7da397502259
        Subject Public Key Info:
            Public Key Algorithm: rsaEncryption
                RSA Public-Key: (3072 bit)
                Modulus:
                    00:cf:7c:1d:7f:46:02:a5:eb:23:20:1d:5a:53:a0:
                    ca:56:97:4f:8c:48:e0:48:05:fd:5e:4f:8d:0d:eb:
                    5e:fa:ab:cd:c0:05:dc:b5:61:e5:4e:30:dd:ae:8b:
                    95:ed:3a:7a:7a:24:ef:e3:9d:6d:7f:d4:05:c7:0d:
                    87:0d:25:72:cf:9a:6a:df:36:39:7d:c1:d2:d0:43:
                    78:08:02:89:dc:d0:af:3c:09:08:c3:79:16:82:a4:
                    a1:cb:d5:83:2c:7f:8a:00:44:5c:0b:5a:c9:9c:47:
                    e9:6d:a1:f1:ab:9f:12:2c:d7:bb:0e:81:d6:59:02:
                    e1:93:35:13:ae:75:0a:be:7a:7d:2e:2e:e2:b5:2c:
                    f4:8f:b4:ff:d4:8c:84:37:fe:be:32:46:07:92:67:
                    85:3f:da:63:f7:28:d1:79:14:f7:ad:13:3a:58:34:
                    16:3f:7c:e9:be:fc:da:31:97:e5:cf:31:fa:3f:c3:
                    2e:01:ef:22:32:bb:8f:8a:4c:5b:d9:15:1f:7b:35:
                    02:99:5f:41:c8:e3:b1:08:21:e4:80:7c:44:96:db:
                    6e:11:0d:a6:80:17:a6:8a:3c:55:16:6b:14:11:c3:
                    9a:c0:92:7c:a3:1e:5c:b3:cb:9a:26:de:2a:fe:88:
                    4d:1c:74:4a:c9:35:95:2b:6d:32:d1:af:57:39:c9:
                    ed:60:a2:69:a6:a8:67:08:3a:39:a7:1b:49:c2:78:
                    7f:40:88:01:4b:c0:c7:c2:b0:c6:52:d2:38:98:ee:
                    03:af:98:69:04:46:35:de:ac:1b:e8:37:7a:58:6d:
                    57:10:cf:55:49:8d:41:18:70:c6:4b:d1:bf:77:64:
                    a2:b3:1f:fd:4b:6e:c7:9b:b8:b7:44:b1:a5:6c:ca:
                    ac:db:0b:f0:d0:48:6f:10:62:3e:3c:7b:5c:b1:7a:
                    f2:23:3a:2e:f0:7f:c6:ac:e5:a3:09:a1:7f:2a:3d:
                    a9:e7:d0:a3:10:38:2b:59:c8:c1:de:2a:07:88:08:
                    d8:48:12:08:b9:31:04:23:3c:61
                Exponent: 65537 (0x10001)
        X509v3 extensions:
            X509v3 Authority Key Identifier: 
                keyid:62:BC:0C:DA:FD:F8:19:18:14:31:BB:FA:39:82:CE:19:96:40:52:E0

            X509v3 Basic Constraints: critical
                CA:FALSE
            X509v3 Extended Key Usage: 
                TLS Web Client Authentication, TLS Web Server Authentication
            X509v3 Key Usage: critical
                Digital Signature, Key Encipherment
            X509v3 Subject Key Identifier: 
                E5:16:68:BE:E2:82:E2:9E:46:9A:8C:39:34:16:B5:1A:18:E3:37:6E
    Signature Algorithm: sha256WithRSAEncryption
         02:85:60:cf:c8:70:da:12:2c:54:6d:90:06:2a:65:a1:d9:2f:
         e7:58:2e:b1:42:7d:db:25:b5:0a:27:65:a9:8f:37:89:a6:48:
         89:92:10:fc:3c:e9:b0:3b:a9:a3:39:97:5a:a1:9a:dd:66:59:
         5e:75:84:14:25:d5:32:bf:1a:00:2f:50:bc:c3:d4:72:10:a9:
         03:e8:bc:2a:12:e1:ad:9f:00:ad:a8:53:37:a7:f0:84:6d:4f:
         38:a1:5b:1e:f0:53:cd:05:8a:63:b3:03:5d:9f:1e:05:f8:fb:
         11:99:d5:42:3d:8b:bf:c5:02:f3:84:bd:89:e3:59:17:b5:b5:
         e3:9e:75:5a:06:77:da:e6:b8:f7:cc:b8:c1:3a:75:d9:e5:31:
         8a:03:52:a1:ef:74:32:f1:5a:f4:fc:ed:46:6c:e9:f6:48:16:
         f3:60:43:8b:cf:27:08:b5:2a:18:b1:bd:63:0e:06:33:ea:a5:
         18:bd:9f:2b:06:cc:10:ed:56:f3:3d:97:39:42:f2:ce:0f:76:
         61:a6:da:3b:9a:60:11:2b:89:4a:78:93:d7:7a:62:bd:7e:f3:
         80:74:a2:39:f2:f1:37:a5:36:0e:16:ce:68:c8:d9:e7:aa:fd:
         b6:e1:1d:0d:c6:76:43:8f:d2:58:4e:09:c1:10:0c:7a:97:0a:
         c8:97:1b:94:5b:73:91:8d:1a:6c:04:4a:d5:3f:d0:76:1b:ec:
         78:ed:22:97:97:fb:10:5f:57:db:2a:b1:21:35:a7:27:29:8c:
         cc:08:5c:d0:f9:bd:31:45:76:08:17:54:26:20:c3:e6:38:8f:
         d6:c8:d5:90:20:05:cd:2b:80:14:dd:44:4a:05:47:cc:2c:a0:
         3b:37:4e:b3:a9:28:fa:e0:74:36:15:cb:2c:b7:af:1c:4c:72:
         5a:c1:2f:10:1c:8b:bb:ba:72:94:af:39:49:c2:89:d1:09:3f:
         2a:b1:29:bd:07:cf:66:2c:22:fe:6e:1c:95:b5:8b:6a:24:f7:
         22:45:7e:be:e4:12
-----BEGIN CERTIFICATE-----
MIIE4jCCA0qgAwIBAgIRAJoTDv9dnItV+58UohDagVMwDQYJKoZIhvcNAQELBQAw
azEjMCEGA1UECgwaU3dhcHRhY3VsYXIgTm9kZXMgUmVnaXN0cnkxGTAXBgNVBAsM
EENyZWRpdG9ycyBBZ2VudHMxKTAnBgNVBAUTIGNhN2QzYzZmN2ZjMjU5MzdjMGRh
N2RhMzk3NTAyMjU5MCAXDTIzMDcyNTEzNTYxNFoYDzIxMjMwNzAxMTM1NjE0WjBr
MSMwIQYDVQQKDBpTd2FwdGFjdWxhciBOb2RlcyBSZWdpc3RyeTEZMBcGA1UECwwQ
Q3JlZGl0b3JzIEFnZW50czEpMCcGA1UEBRMgY2E3ZDNjNmY3ZmMyNTkzN2MwZGE3
ZGEzOTc1MDIyNTkwggGiMA0GCSqGSIb3DQEBAQUAA4IBjwAwggGKAoIBgQDPfB1/
RgKl6yMgHVpToMpWl0+MSOBIBf1eT40N6176q83ABdy1YeVOMN2ui5XtOnp6JO/j
nW1/1AXHDYcNJXLPmmrfNjl9wdLQQ3gIAonc0K88CQjDeRaCpKHL1YMsf4oARFwL
WsmcR+ltofGrnxIs17sOgdZZAuGTNROudQq+en0uLuK1LPSPtP/UjIQ3/r4yRgeS
Z4U/2mP3KNF5FPetEzpYNBY/fOm+/Noxl+XPMfo/wy4B7yIyu4+KTFvZFR97NQKZ
X0HI47EIIeSAfESW224RDaaAF6aKPFUWaxQRw5rAknyjHlyzy5om3ir+iE0cdErJ
NZUrbTLRr1c5ye1gommmqGcIOjmnG0nCeH9AiAFLwMfCsMZS0jiY7gOvmGkERjXe
rBvoN3pYbVcQz1VJjUEYcMZL0b93ZKKzH/1LbsebuLdEsaVsyqzbC/DQSG8QYj48
e1yxevIjOi7wf8as5aMJoX8qPann0KMQOCtZyMHeKgeICNhIEgi5MQQjPGECAwEA
AaN/MH0wHwYDVR0jBBgwFoAUYrwM2v34GRgUMbv6OYLOGZZAUuAwDAYDVR0TAQH/
BAIwADAdBgNVHSUEFjAUBggrBgEFBQcDAgYIKwYBBQUHAwEwDgYDVR0PAQH/BAQD
AgWgMB0GA1UdDgQWBBTlFmi+4oLinkaajDk0FrUaGOM3bjANBgkqhkiG9w0BAQsF
AAOCAYEAAoVgz8hw2hIsVG2QBiplodkv51gusUJ92yW1CidlqY83iaZIiZIQ/Dzp
sDupozmXWqGa3WZZXnWEFCXVMr8aAC9QvMPUchCpA+i8KhLhrZ8ArahTN6fwhG1P
OKFbHvBTzQWKY7MDXZ8eBfj7EZnVQj2Lv8UC84S9ieNZF7W14551WgZ32ua498y4
wTp12eUxigNSoe90MvFa9PztRmzp9kgW82BDi88nCLUqGLG9Yw4GM+qlGL2fKwbM
EO1W8z2XOULyzg92YabaO5pgESuJSniT13pivX7zgHSiOfLxN6U2DhbOaMjZ56r9
tuEdDcZ2Q4/SWE4JwRAMepcKyJcblFtzkY0abARK1T/QdhvseO0il5f7EF9X2yqx
ITWnJymMzAhc0Pm9MUV2CBdUJiDD5jiP1sjVkCAFzSuAFN1ESgVHzCygOzdOs6ko
+uB0NhXLLLevHExyWsEvEByLu7pylK85ScKJ0Qk/KrEpvQfPZiwi/m4clbWLaiT3
IkV+vuQS
-----END CERTIFICATE-----
