Certificate:
    Data:
        Version: 3 (0x2)
        Serial Number:
            9a:13:0e:ff:5d:9c:8b:55:fb:9f:14:a2:10:da:81:51
        Signature Algorithm: sha256WithRSAEncryption
        Issuer: O=Swaptacular Nodes Registry, OU=Creditors Agents/serialNumber=ca7d3c6f7fc25937c0da7da397502259
        Validity
            Not Before: Jul 25 10:03:16 2023 GMT
            Not After : Jul 24 10:03:16 2024 GMT
        Subject: O=Swaptacular Nodes Registry, OU=Creditors Agents/serialNumber=ca7d3c6f7fc25937c0da7da397502259
        Subject Public Key Info:
            Public Key Algorithm: rsaEncryption
                RSA Public-Key: (3072 bit)
                Modulus:
                    00:ca:df:a5:09:a6:8f:99:db:11:10:a8:fc:84:2b:
                    2d:68:a7:86:7c:64:68:ba:8a:6c:ea:84:4d:ba:1c:
                    6e:85:df:31:61:e1:4e:02:e7:76:83:c8:98:cc:2b:
                    2f:26:b4:ec:64:c9:63:ef:a1:0c:ef:04:b6:0d:7e:
                    2a:b2:07:54:bc:51:a0:70:71:60:90:5b:ff:99:6f:
                    8d:23:d5:b4:1d:19:fb:97:86:51:92:34:17:e4:26:
                    1b:41:13:d6:4e:73:c0:63:da:de:2a:54:6b:81:68:
                    7f:d4:44:75:8f:2b:d9:45:d8:54:fe:68:80:45:82:
                    93:c9:d3:bf:20:6d:8f:a0:45:7a:b3:19:26:9b:41:
                    33:60:f5:f1:86:0a:62:9f:e8:51:a2:af:5f:a9:c9:
                    ee:c5:3e:39:19:4e:e0:c8:ba:c8:70:a7:eb:80:a1:
                    0e:c6:f5:a0:12:79:16:fb:53:b2:5d:6c:2f:0a:df:
                    a7:f5:ba:9e:bb:21:38:7e:9f:f5:49:64:36:32:ff:
                    44:41:a7:97:cb:c0:ff:04:41:30:ad:be:e5:70:37:
                    9a:51:f9:78:ff:da:ea:76:e1:20:a8:66:21:c3:66:
                    b7:43:50:13:78:63:ed:21:6f:fb:a3:e4:eb:95:de:
                    76:5a:03:75:bc:30:c2:89:36:a3:ed:9d:77:07:db:
                    67:99:a8:08:6f:4e:2b:30:9c:37:ad:6b:a4:66:66:
                    2a:e7:cb:6d:2f:0c:0a:c4:76:f8:03:e9:97:a1:7a:
                    e7:4f:06:11:b7:5b:b0:f7:fe:36:11:d5:e6:e3:a5:
                    3b:06:e6:be:6b:82:4a:0d:98:cb:38:b3:a3:44:e7:
                    4f:59:84:e6:fe:e6:23:b7:ae:92:6b:18:f5:51:9d:
                    25:bc:df:3d:bf:17:c7:05:da:54:d1:7f:c8:1d:65:
                    27:bd:6f:df:aa:66:b5:76:a3:b3:e4:79:fc:1b:b9:
                    f7:49:89:eb:8f:39:61:29:e7:d3:7c:72:c9:a4:e1:
                    82:51:6d:5b:9a:b2:99:49:9c:a1
                Exponent: 65537 (0x10001)
        X509v3 extensions:
            X509v3 Authority Key Identifier: 
                keyid:62:BC:0C:DA:FD:F8:19:18:14:31:BB:FA:39:82:CE:19:96:40:52:E0

            X509v3 Basic Constraints: critical
                CA:FALSE
            X509v3 Extended Key Usage: 
                TLS Web Client Authentication, TLS Web Server Authentication
            X509v3 Key Usage: critical
                Digital Signature, Key Encipherment
            X509v3 Subject Key Identifier: 
                D7:56:ED:9A:B0:A0:60:A5:C7:43:5D:7E:39:9F:93:A5:9A:BB:CA:26
    Signature Algorithm: sha256WithRSAEncryption
         1f:62:f4:fc:29:55:c4:77:7d:04:2b:ae:d4:c3:0e:19:2f:60:
         a1:88:91:74:5d:93:ff:75:df:bc:0b:9b:11:7c:17:c5:e3:ba:
         6e:bc:f9:cf:ce:47:82:07:b6:7f:b2:68:f1:7c:23:c9:25:f1:
         48:54:ee:a0:2a:33:f1:20:98:76:59:e0:85:a7:c9:3c:78:f3:
         42:be:4d:79:5f:d8:8c:f7:c3:08:3f:3d:b4:60:c7:80:fc:76:
         73:a0:4d:91:ca:cd:92:54:8b:0b:a5:c6:3d:38:54:07:3d:e4:
         05:cf:52:ca:54:fb:0b:88:7a:58:59:21:7a:4e:8f:5c:9d:2b:
         97:c4:84:c7:7c:da:01:3b:86:6e:23:9e:af:06:15:70:1e:0a:
         e8:1a:c5:9b:f9:e0:0a:9d:31:e0:6b:14:bf:73:1f:7a:5e:1e:
         93:6c:3e:6f:02:6b:82:98:a6:e4:d9:68:bb:75:0c:60:5f:bc:
         c3:37:70:0a:77:d8:93:f5:97:4f:b9:f0:75:bf:3f:74:f8:e8:
         11:c3:0f:43:51:93:82:f1:85:d9:57:01:ce:41:a9:9d:d1:89:
         f6:90:2b:9b:0b:d9:d5:17:ad:2a:cd:ee:72:eb:7a:ea:97:e5:
         45:cd:26:f0:5a:5b:ec:b1:2a:61:78:1e:4e:c5:cd:50:cd:f4:
         3d:8d:07:ad:d5:67:e0:75:03:d8:5d:42:7f:44:ee:77:84:dc:
         0f:4c:7b:ee:b4:8f:52:37:74:1a:3f:94:34:cf:c9:8c:40:a7:
         92:54:77:2d:f7:99:57:0d:4a:37:a0:1f:59:db:a9:d4:19:c9:
         92:ff:f3:5a:7b:13:a0:85:b0:8f:a5:2b:2e:b9:da:e5:99:9e:
         f8:82:86:ad:88:13:41:6c:39:e7:6c:2a:ae:42:60:cd:5e:0d:
         b1:63:ae:bb:ed:a8:af:4b:0b:14:e2:4f:6c:6c:4a:ea:2e:ab:
         12:df:d6:34:d8:55:78:38:04:e9:b6:49:05:97:b2:70:6b:95:
         93:c9:07:d4:b5:5a
-----BEGIN CERTIFICATE-----
MIIE4DCCA0igAwIBAgIRAJoTDv9dnItV+58UohDagVEwDQYJKoZIhvcNAQELBQAw
azEjMCEGA1UECgwaU3dhcHRhY3VsYXIgTm9kZXMgUmVnaXN0cnkxGTAXBgNVBAsM
EENyZWRpdG9ycyBBZ2VudHMxKTAnBgNVBAUTIGNhN2QzYzZmN2ZjMjU5MzdjMGRh
N2RhMzk3NTAyMjU5MB4XDTIzMDcyNTEwMDMxNloXDTI0MDcyNDEwMDMxNlowazEj
MCEGA1UECgwaU3dhcHRhY3VsYXIgTm9kZXMgUmVnaXN0cnkxGTAXBgNVBAsMEENy
ZWRpdG9ycyBBZ2VudHMxKTAnBgNVBAUTIGNhN2QzYzZmN2ZjMjU5MzdjMGRhN2Rh
Mzk3NTAyMjU5MIIBojANBgkqhkiG9w0BAQEFAAOCAY8AMIIBigKCAYEAyt+lCaaP
mdsREKj8hCstaKeGfGRouops6oRNuhxuhd8xYeFOAud2g8iYzCsvJrTsZMlj76EM
7wS2DX4qsgdUvFGgcHFgkFv/mW+NI9W0HRn7l4ZRkjQX5CYbQRPWTnPAY9reKlRr
gWh/1ER1jyvZRdhU/miARYKTydO/IG2PoEV6sxkmm0EzYPXxhgpin+hRoq9fqcnu
xT45GU7gyLrIcKfrgKEOxvWgEnkW+1OyXWwvCt+n9bqeuyE4fp/1SWQ2Mv9EQaeX
y8D/BEEwrb7lcDeaUfl4/9rqduEgqGYhw2a3Q1ATeGPtIW/7o+Trld52WgN1vDDC
iTaj7Z13B9tnmagIb04rMJw3rWukZmYq58ttLwwKxHb4A+mXoXrnTwYRt1uw9/42
EdXm46U7Bua+a4JKDZjLOLOjROdPWYTm/uYjt66Saxj1UZ0lvN89vxfHBdpU0X/I
HWUnvW/fqma1dqOz5Hn8G7n3SYnrjzlhKefTfHLJpOGCUW1bmrKZSZyhAgMBAAGj
fzB9MB8GA1UdIwQYMBaAFGK8DNr9+BkYFDG7+jmCzhmWQFLgMAwGA1UdEwEB/wQC
MAAwHQYDVR0lBBYwFAYIKwYBBQUHAwIGCCsGAQUFBwMBMA4GA1UdDwEB/wQEAwIF
oDAdBgNVHQ4EFgQU11btmrCgYKXHQ11+OZ+TpZq7yiYwDQYJKoZIhvcNAQELBQAD
ggGBAB9i9PwpVcR3fQQrrtTDDhkvYKGIkXRdk/9137wLmxF8F8Xjum68+c/OR4IH
tn+yaPF8I8kl8UhU7qAqM/EgmHZZ4IWnyTx480K+TXlf2Iz3wwg/PbRgx4D8dnOg
TZHKzZJUiwulxj04VAc95AXPUspU+wuIelhZIXpOj1ydK5fEhMd82gE7hm4jnq8G
FXAeCugaxZv54AqdMeBrFL9zH3peHpNsPm8Ca4KYpuTZaLt1DGBfvMM3cAp32JP1
l0+58HW/P3T46BHDD0NRk4LxhdlXAc5BqZ3RifaQK5sL2dUXrSrN7nLreuqX5UXN
JvBaW+yxKmF4Hk7FzVDN9D2NB63VZ+B1A9hdQn9E7neE3A9Me+60j1I3dBo/lDTP
yYxAp5JUdy33mVcNSjegH1nbqdQZyZL/81p7E6CFsI+lKy652uWZnviChq2IE0Fs
OedsKq5CYM1eDbFjrrvtqK9LCxTiT2xsSuouqxLf1jTYVXg4BOm2SQWXsnBrlZPJ
B9S1Wg==
-----END CERTIFICATE-----
