Certificate:
    Data:
        Version: 3 (0x2)
        Serial Number:
            9a:13:0e:ff:5d:9c:8b:55:fb:9f:14:a2:10:da:81:50
        Signature Algorithm: sha256WithRSAEncryption
        Issuer: O=Swaptacular Nodes Registry, OU=Creditors Agents/serialNumber=ca7d3c6f7fc25937c0da7da397502259
        Validity
            Not Before: Jul 25 10:01:45 2023 GMT
            Not After : Nov 25 10:01:45 3022 GMT
        Subject: O=Swaptacular Nodes Registry, OU=Creditors Agents/serialNumber=ca7d3c6f7fc25937c0da7da397502259
        Subject Public Key Info:
            Public Key Algorithm: rsaEncryption
                RSA Public-Key: (3072 bit)
                Modulus:
                    00:a6:84:c5:32:ff:90:a7:50:30:0a:50:f3:13:b6:
                    3b:bc:35:3f:5b:18:17:06:10:97:8b:13:16:7d:7e:
                    4b:7b:20:0a:0b:cb:5b:88:43:05:8f:87:38:8c:a1:
                    6b:c2:1e:88:b5:ef:de:ec:c0:e5:92:ae:11:b0:89:
                    e3:47:18:c5:2e:83:43:78:5d:49:78:b3:13:bb:00:
                    74:9e:77:0a:17:3e:0f:ad:82:b6:92:da:06:d0:72:
                    39:69:dd:2f:40:0d:f1:9b:03:0a:f8:55:4e:4c:fa:
                    67:61:ec:d2:c4:ae:21:80:d1:2d:95:96:95:c6:8b:
                    83:67:d9:92:e6:5d:5b:7d:5a:a4:59:25:e7:99:b5:
                    e3:16:94:93:5b:28:99:9f:01:a4:ec:99:64:e4:fe:
                    44:7f:25:a8:a7:58:b5:bb:7e:3e:11:31:c1:56:09:
                    c6:18:c9:c7:8c:75:f5:c4:90:40:e8:78:f2:27:99:
                    00:1e:67:27:c3:d0:b0:0f:87:6b:41:76:52:24:93:
                    aa:b3:a6:d7:3e:98:54:3a:1d:2f:1c:16:cd:c0:17:
                    42:ae:2b:ff:7a:36:ba:9f:70:bb:bb:5f:a1:ee:86:
                    72:07:01:04:fd:7b:0c:e0:f7:24:9b:13:5a:a4:d8:
                    2f:2d:c9:99:4b:f8:8c:37:c3:ec:57:ce:8d:e7:96:
                    52:32:1e:76:5a:d8:eb:5e:70:a6:db:15:eb:0b:59:
                    ba:27:50:6b:85:ce:51:b3:8f:a8:53:1a:1b:d7:e8:
                    fc:36:11:5c:ed:cb:e9:30:ca:88:72:17:bd:2a:26:
                    11:61:16:a8:18:6a:9b:ed:8f:e3:bb:1e:8e:29:ed:
                    44:b5:bb:c2:63:fa:df:a5:54:cb:53:1a:e1:02:57:
                    81:29:0a:2f:dd:15:be:fb:f3:ad:d5:d7:2b:cb:ea:
                    2f:a6:24:e6:a6:ee:31:4e:5b:01:93:4d:bf:48:77:
                    26:14:bd:ab:6e:69:67:b7:dc:84:84:50:bf:a7:9a:
                    10:67:7c:66:f5:77:46:22:6a:99
                Exponent: 65537 (0x10001)
        X509v3 extensions:
            X509v3 Basic Constraints: critical
                CA:TRUE, pathlen:1
            X509v3 Key Usage: critical
                Certificate Sign, CRL Sign
            X509v3 Subject Key Identifier: 
                62:BC:0C:DA:FD:F8:19:18:14:31:BB:FA:39:82:CE:19:96:40:52:E0
    Signature Algorithm: sha256WithRSAEncryption
         85:90:62:81:99:3c:ae:34:6a:55:0a:9b:2a:97:32:43:bc:c3:
         8c:ac:fe:de:b1:78:bf:77:8d:87:cd:48:45:9c:d7:dc:ab:73:
         95:1f:68:63:0f:58:5b:ea:45:e1:00:19:8e:59:35:36:4e:3f:
         5b:63:f7:f6:a0:2e:c7:5c:3e:eb:76:c1:80:4d:1a:f6:57:f7:
         97:38:89:b8:62:d9:bd:d0:03:65:45:55:4f:70:95:5e:4a:53:
         a3:b7:1f:0c:42:9d:54:90:8c:aa:68:c1:8e:65:2e:21:5e:fd:
         91:1d:87:4b:65:d0:7b:28:fb:0b:da:f1:ea:e0:47:32:5e:3c:
         53:1b:ad:40:4b:92:9a:14:f1:d7:da:98:29:9e:0d:7b:ec:a4:
         0f:39:5c:4e:a7:9e:75:dd:86:ab:ee:49:bf:40:7b:e2:3c:89:
         2b:d6:d1:cb:bf:21:12:db:88:1f:2f:bb:61:f4:5c:f0:b8:e3:
         85:89:bf:88:60:31:df:b5:6f:2e:59:6f:fd:0e:f7:33:4a:2b:
         0b:f7:1f:bf:75:e5:40:0f:9f:13:e3:25:5d:4b:91:ef:43:17:
         07:81:45:27:23:40:9f:b3:d2:3d:80:30:89:3b:a7:5e:14:93:
         86:5e:66:0d:b2:56:77:a0:1b:b6:8c:4f:a2:a2:87:ba:5b:c9:
         a4:86:c3:98:8d:c2:44:e3:25:26:36:8c:e1:89:fa:49:80:a1:
         1f:e4:2a:e3:58:98:2f:81:8f:f3:c1:e6:c9:d1:b3:37:47:38:
         8d:c8:20:82:ab:4b:b4:3c:a2:b8:ba:f7:f6:44:9a:02:3b:39:
         8a:47:bf:a3:21:aa:52:53:87:5f:ab:6c:65:4b:97:89:c2:61:
         b8:e5:e4:f1:e5:e6:66:27:08:65:e0:b0:d8:74:7b:a3:fc:f8:
         08:3b:f8:0f:1b:cc:f9:af:40:e9:43:e8:6b:82:0b:4f:5e:09:
         ca:8b:13:2b:e7:d7:32:78:2e:b9:34:dd:af:a7:c8:68:14:c7:
         d6:89:cb:06:45:6f
-----BEGIN CERTIFICATE-----
MIIEqDCCAxCgAwIBAgIRAJoTDv9dnItV+58UohDagVAwDQYJKoZIhvcNAQELBQAw
azEjMCEGA1UECgwaU3dhcHRhY3VsYXIgTm9kZXMgUmVnaXN0cnkxGTAXBgNVBAsM
EENyZWRpdG9ycyBBZ2VudHMxKTAnBgNVBAUTIGNhN2QzYzZmN2ZjMjU5MzdjMGRh
N2RhMzk3NTAyMjU5MCAXDTIzMDcyNTEwMDE0NVoYDzMwMjIxMTI1MTAwMTQ1WjBr
MSMwIQYDVQQKDBpTd2FwdGFjdWxhciBOb2RlcyBSZWdpc3RyeTEZMBcGA1UECwwQ
Q3JlZGl0b3JzIEFnZW50czEpMCcGA1UEBRMgY2E3ZDNjNmY3ZmMyNTkzN2MwZGE3
ZGEzOTc1MDIyNTkwggGiMA0GCSqGSIb3DQEBAQUAA4IBjwAwggGKAoIBgQCmhMUy
/5CnUDAKUPMTtju8NT9bGBcGEJeLExZ9fkt7IAoLy1uIQwWPhziMoWvCHoi1797s
wOWSrhGwieNHGMUug0N4XUl4sxO7AHSedwoXPg+tgraS2gbQcjlp3S9ADfGbAwr4
VU5M+mdh7NLEriGA0S2VlpXGi4Nn2ZLmXVt9WqRZJeeZteMWlJNbKJmfAaTsmWTk
/kR/JainWLW7fj4RMcFWCcYYyceMdfXEkEDoePInmQAeZyfD0LAPh2tBdlIkk6qz
ptc+mFQ6HS8cFs3AF0KuK/96NrqfcLu7X6HuhnIHAQT9ewzg9ySbE1qk2C8tyZlL
+Iw3w+xXzo3nllIyHnZa2OtecKbbFesLWbonUGuFzlGzj6hTGhvX6Pw2EVzty+kw
yohyF70qJhFhFqgYapvtj+O7Ho4p7US1u8Jj+t+lVMtTGuECV4EpCi/dFb77863V
1yvL6i+mJOam7jFOWwGTTb9IdyYUvatuaWe33ISEUL+nmhBnfGb1d0YiapkCAwEA
AaNFMEMwEgYDVR0TAQH/BAgwBgEB/wIBATAOBgNVHQ8BAf8EBAMCAQYwHQYDVR0O
BBYEFGK8DNr9+BkYFDG7+jmCzhmWQFLgMA0GCSqGSIb3DQEBCwUAA4IBgQCFkGKB
mTyuNGpVCpsqlzJDvMOMrP7esXi/d42HzUhFnNfcq3OVH2hjD1hb6kXhABmOWTU2
Tj9bY/f2oC7HXD7rdsGATRr2V/eXOIm4Ytm90ANlRVVPcJVeSlOjtx8MQp1UkIyq
aMGOZS4hXv2RHYdLZdB7KPsL2vHq4EcyXjxTG61AS5KaFPHX2pgpng177KQPOVxO
p5513Yar7km/QHviPIkr1tHLvyES24gfL7th9FzwuOOFib+IYDHftW8uWW/9Dvcz
SisL9x+/deVAD58T4yVdS5HvQxcHgUUnI0Cfs9I9gDCJO6deFJOGXmYNslZ3oBu2
jE+iooe6W8mkhsOYjcJE4yUmNozhifpJgKEf5CrjWJgvgY/zwebJ0bM3RziNyCCC
q0u0PKK4uvf2RJoCOzmKR7+jIapSU4dfq2xlS5eJwmG45eTx5eZmJwhl4LDYdHuj
/PgIO/gPG8z5r0DpQ+hrggtPXgnKixMr59cyeC65NN2vp8hoFMfWicsGRW8=
-----END CERTIFICATE-----
